; Function Attrs: mustprogress uwtable
define internal fastcc void @_ZL16create_directoryPKci(ptr noundef %0, i32 noundef %1) unnamed_addr #4 {
  %3 = tail call i32 @mkdir(ptr noundef %0, i32 noundef 508) #21
  %.not = icmp eq i32 %3, 0
  br i1 %.not, label %45, label %4

4:                                                ; preds = %2
  %5 = tail call ptr @__errno_location() #22
  %6 = load i32, ptr %5, align 4, !tbaa !35
  %7 = icmp eq i32 %6, 17
  br i1 %7, label %8, label %41

8:                                                ; preds = %4
  %.not3 = icmp eq i32 %1, 0
  br i1 %.not3, label %45, label %9

9:                                                ; preds = %8
  %.not.i = icmp eq ptr %0, null
  br i1 %.not.i, label %10, label %18

10:                                               ; preds = %9
  %11 = load ptr, ptr @_ZSt4cout, align 8, !tbaa !3
  %12 = getelementptr i8, ptr %11, i64 -24
  %13 = load i64, ptr %12, align 8
  %14 = getelementptr inbounds i8, ptr @_ZSt4cout, i64 %13
  %15 = getelementptr inbounds nuw i8, ptr %14, i64 32
  %16 = load i32, ptr %15, align 8, !tbaa !277
  %17 = or i32 %16, 1
  tail call void @_ZNSt9basic_iosIcSt11char_traitsIcEE5clearESt12_Ios_Iostate(ptr noundef nonnull align 8 dereferenceable(264) %14, i32 noundef %17)
  br label %_ZStlsISt11char_traitsIcEERSt13basic_ostreamIcT_ES5_PKc.exit

18:                                               ; preds = %9
  %19 = tail call noundef i64 @strlen(ptr noundef nonnull dereferenceable(1) %0) #21
  %20 = tail call noundef nonnull align 8 dereferenceable(8) ptr @_ZSt16__ostream_insertIcSt11char_traitsIcEERSt13basic_ostreamIT_T0_ES6_PKS3_l(ptr noundef nonnull align 8 dereferenceable(8) @_ZSt4cout, ptr noundef nonnull %0, i64 noundef %19)
  br label %_ZStlsISt11char_traitsIcEERSt13basic_ostreamIcT_ES5_PKc.exit

_ZStlsISt11char_traitsIcEERSt13basic_ostreamIcT_ES5_PKc.exit: ; preds = %10, %18
  %21 = tail call noundef nonnull align 8 dereferenceable(8) ptr @_ZSt16__ostream_insertIcSt11char_traitsIcEERSt13basic_ostreamIT_T0_ES6_PKS3_l(ptr noundef nonnull align 8 dereferenceable(8) @_ZSt4cout, ptr noundef nonnull @.str.104, i64 noundef 26)
  %22 = load ptr, ptr @_ZSt4cout, align 8, !tbaa !3
  %23 = getelementptr i8, ptr %22, i64 -24
  %24 = load i64, ptr %23, align 8
  %25 = getelementptr inbounds i8, ptr @_ZSt4cout, i64 %24
  %26 = getelementptr inbounds nuw i8, ptr %25, i64 240
  %27 = load ptr, ptr %26, align 8, !tbaa !6
  %.not.i.i.i = icmp eq ptr %27, null
  br i1 %.not.i.i.i, label %28, label %_ZSt13__check_facetISt5ctypeIcEERKT_PS3_.exit.i.i

28:                                               ; preds = %_ZStlsISt11char_traitsIcEERSt13basic_ostreamIcT_ES5_PKc.exit
  tail call void @_ZSt16__throw_bad_castv() #20
  unreachable

_ZSt13__check_facetISt5ctypeIcEERKT_PS3_.exit.i.i: ; preds = %_ZStlsISt11char_traitsIcEERSt13basic_ostreamIcT_ES5_PKc.exit
  %29 = getelementptr inbounds nuw i8, ptr %27, i64 56
  %30 = load i8, ptr %29, align 8, !tbaa !26
  %.not.i1.i.i = icmp eq i8 %30, 0
  br i1 %.not.i1.i.i, label %34, label %31

31:                                               ; preds = %_ZSt13__check_facetISt5ctypeIcEERKT_PS3_.exit.i.i
  %32 = getelementptr inbounds nuw i8, ptr %27, i64 67
  %33 = load i8, ptr %32, align 1, !tbaa !32
  br label %_ZSt4endlIcSt11char_traitsIcEERSt13basic_ostreamIT_T0_ES6_.exit

34:                                               ; preds = %_ZSt13__check_facetISt5ctypeIcEERKT_PS3_.exit.i.i
  tail call void @_ZNKSt5ctypeIcE13_M_widen_initEv(ptr noundef nonnull align 8 dereferenceable(570) %27)
  %35 = load ptr, ptr %27, align 8, !tbaa !3
  %36 = getelementptr inbounds nuw i8, ptr %35, i64 48
  %37 = load ptr, ptr %36, align 8
  %38 = tail call noundef signext i8 %37(ptr noundef nonnull align 8 dereferenceable(570) %27, i8 noundef signext 10)
  br label %_ZSt4endlIcSt11char_traitsIcEERSt13basic_ostreamIT_T0_ES6_.exit

_ZSt4endlIcSt11char_traitsIcEERSt13basic_ostreamIT_T0_ES6_.exit: ; preds = %31, %34
  %.0.i.i.i = phi i8 [ %33, %31 ], [ %38, %34 ]
  %39 = tail call noundef nonnull align 8 dereferenceable(8) ptr @_ZNSo3putEc(ptr noundef nonnull align 8 dereferenceable(8) @_ZSt4cout, i8 noundef signext %.0.i.i.i)
  %40 = tail call noundef nonnull align 8 dereferenceable(8) ptr @_ZNSo5flushEv(ptr noundef nonnull align 8 dereferenceable(8) %39)
  br label %45

41:                                               ; preds = %4
  %42 = load ptr, ptr @stderr, align 8, !tbaa !33
  %43 = tail call ptr @strerror(i32 noundef %6) #21
  %44 = tail call i32 (ptr, ptr, ...) @fprintf(ptr noundef %42, ptr noundef nonnull @.str.105, ptr noundef %0, ptr noundef %43) #23
  tail call void @exit(i32 noundef 1) #24
  unreachable

45:                                               ; preds = %_ZSt4endlIcSt11char_traitsIcEERSt13basic_ostreamIT_T0_ES6_.exit, %8, %2
  ret void
}